; Function Attrs: null_pointer_is_valid sspstrong uwtable
define hidden i32 @mapi_dissect_struct_DeleteFolder_req(ptr noundef %0, i32 noundef %1, ptr noundef %2, ptr noundef %3, ptr noundef %4, ptr noundef %5, i32 noundef %6, i32 %7) local_unnamed_addr #0 {
  %9 = alloca i8, align 1
  %10 = getelementptr inbounds nuw i8, ptr %4, i64 26
  %11 = load i8, ptr %10, align 2, !range !9, !noundef !10
  store i8 1, ptr %10, align 2
  %.not = icmp eq ptr %3, null
  br i1 %.not, label %16, label %12

12:                                               ; preds = %8
  %13 = tail call ptr @proto_tree_add_item(ptr noundef nonnull %3, i32 noundef %6, ptr noundef %0, i32 noundef %1, i32 noundef -1, i32 noundef 0)
  %14 = load i32, ptr @ett_mapi_DeleteFolder_req, align 4
  %15 = tail call ptr @proto_item_add_subtree(ptr noundef %13, i32 noundef %14)
  br label %16

16:                                               ; preds = %12, %8
  %.038 = phi ptr [ %15, %12 ], [ null, %8 ]
  %.0 = phi ptr [ %13, %12 ], [ null, %8 ]
  %17 = load i32, ptr @hf_mapi_LogonId, align 4
  %18 = tail call i32 @PIDL_dissect_uint8(ptr noundef %0, i32 noundef %1, ptr noundef %2, ptr noundef %.038, ptr noundef %4, ptr noundef %5, i32 noundef %17, i32 noundef 0)
  %19 = load i32, ptr @hf_mapi_InputHandleIndex, align 4
  %20 = tail call i32 @PIDL_dissect_uint8(ptr noundef %0, i32 noundef %18, ptr noundef %2, ptr noundef %.038, ptr noundef %4, ptr noundef %5, i32 noundef %19, i32 noundef 0)
  %21 = load i32, ptr @hf_mapi_DeleteFolder_req_DeleteFolderFlags, align 4
  call void @llvm.lifetime.start.p0(i64 1, ptr nonnull %9) #6
  %22 = load i32, ptr @ett_mapi_DeleteFolderFlags, align 4
  %23 = load i8, ptr %5, align 1
  %24 = and i8 %23, 16
  %25 = zext nneg i8 %24 to i32
  %26 = shl nuw i32 %25, 27
  %27 = tail call ptr @proto_tree_add_bitmask_with_flags(ptr noundef %.038, ptr noundef %0, i32 noundef %20, i32 noundef %21, i32 noundef %22, ptr noundef nonnull @mapi_dissect_bitmap_DeleteFolderFlags.mapi_DeleteFolderFlags_fields, i32 noundef %26, i32 noundef 4)
  %28 = call i32 @dissect_ndr_uint8(ptr noundef %0, i32 noundef %20, ptr noundef %2, ptr noundef %.038, ptr noundef %4, ptr noundef %5, i32 noundef -1, ptr noundef nonnull %9)
  %29 = load i8, ptr %9, align 1
  %.not.i.i = icmp eq i8 %29, 0
  br i1 %.not.i.i, label %30, label %31

30:                                               ; preds = %16
  call void (ptr, ptr, ...) @proto_item_append_text(ptr noundef %27, ptr noundef nonnull @.str.3868)
  %.pre.i.i = load i8, ptr %9, align 1
  br label %31

31:                                               ; preds = %30, %16
  %32 = phi i8 [ %.pre.i.i, %30 ], [ %29, %16 ]
  %33 = and i8 %32, -22
  %.not13.i.i = icmp eq i8 %33, 0
  br i1 %.not13.i.i, label %mapi_dissect_element_DeleteFolder_req_DeleteFolderFlags.exit, label %34

34:                                               ; preds = %31
  store i8 %33, ptr %9, align 1
  %35 = zext i8 %33 to i32
  call void (ptr, ptr, ...) @proto_item_append_text(ptr noundef %27, ptr noundef nonnull @.str.3869, i32 noundef %35)
  br label %mapi_dissect_element_DeleteFolder_req_DeleteFolderFlags.exit

mapi_dissect_element_DeleteFolder_req_DeleteFolderFlags.exit: ; preds = %31, %34
  call void @llvm.lifetime.end.p0(i64 1, ptr nonnull %9) #6
  %36 = load i32, ptr @hf_mapi_DeleteFolder_req_FolderId, align 4
  %37 = call i32 @dissect_ndr_uint64(ptr noundef %0, i32 noundef %28, ptr noundef %2, ptr noundef %.038, ptr noundef %4, ptr noundef %5, i32 noundef %36, ptr noundef null)
  %38 = sub i32 %37, %1
  call void @proto_item_set_len(ptr noundef %.0, i32 noundef %38)
  store i8 %11, ptr %10, align 2
  ret i32 %37
}